target datalayout = "e-m:e-p270:32:32-p271:32:32-p272:64:64-i64:64-i128:128-f80:128-n8:16:32:64-S128"
target triple = "x86_64-pc-linux-gnu"

@.str.45 = private unnamed_addr constant [75 x i8] c"%s resynchronizes a PostgreSQL cluster with another copy of the cluster.\0A\0A\00", align 1
@.str.46 = private unnamed_addr constant [26 x i8] c"Usage:\0A  %s [OPTION]...\0A\0A\00", align 1
@.str.47 = private unnamed_addr constant [10 x i8] c"Options:\0A\00", align 1
@.str.48 = private unnamed_addr constant [149 x i8] c"  -c, --restore-target-wal       use \22restore_command\22 in target configuration to\0A                                 retrieve WAL files from archives\0A\00", align 1
@.str.49 = private unnamed_addr constant [68 x i8] c"  -D, --target-pgdata=DIRECTORY  existing data directory to modify\0A\00", align 1
@.str.50 = private unnamed_addr constant [76 x i8] c"      --source-pgdata=DIRECTORY  source data directory to synchronize with\0A\00", align 1
@.str.51 = private unnamed_addr constant [68 x i8] c"      --source-server=CONNSTR    source server to synchronize with\0A\00", align 1
@.str.52 = private unnamed_addr constant [65 x i8] c"  -n, --dry-run                  stop before modifying anything\0A\00", align 1
@.str.53 = private unnamed_addr constant [120 x i8] c"  -N, --no-sync                  do not wait for changes to be written\0A                                 safely to disk\0A\00", align 1
@.str.54 = private unnamed_addr constant [58 x i8] c"  -P, --progress                 write progress messages\0A\00", align 1
@.str.55 = private unnamed_addr constant [130 x i8] c"  -R, --write-recovery-conf      write configuration for replication\0A                                 (requires --source-server)\0A\00", align 1
@.str.56 = private unnamed_addr constant [140 x i8] c"      --config-file=FILENAME     use specified main server configuration\0A                                 file when running target cluster\0A\00", align 1
@.str.57 = private unnamed_addr constant [64 x i8] c"      --debug                    write a lot of debug messages\0A\00", align 1
@.str.58 = private unnamed_addr constant [76 x i8] c"      --no-ensure-shutdown       do not automatically fix unclean shutdown\0A\00", align 1
@.str.59 = private unnamed_addr constant [71 x i8] c"      --sync-method=METHOD       set method for syncing files to disk\0A\00", align 1
@.str.60 = private unnamed_addr constant [72 x i8] c"  -V, --version                  output version information, then exit\0A\00", align 1
@.str.61 = private unnamed_addr constant [60 x i8] c"  -?, --help                     show this help, then exit\0A\00", align 1
@.str.62 = private unnamed_addr constant [23 x i8] c"\0AReport bugs to <%s>.\0A\00", align 1
@.str.63 = private unnamed_addr constant [32 x i8] c"pgsql-bugs@lists.postgresql.org\00", align 1
@.str.64 = private unnamed_addr constant [20 x i8] c"%s home page: <%s>\0A\00", align 1
@.str.65 = private unnamed_addr constant [11 x i8] c"PostgreSQL\00", align 1
@.str.66 = private unnamed_addr constant [28 x i8] c"https://www.postgresql.org/\00", align 1

; Function Attrs: nounwind uwtable
define internal void @usage(ptr noundef %0) #0 {
  %2 = alloca ptr, align 8
  store ptr %0, ptr %2, align 8
  %3 = load ptr, ptr %2, align 8
  %4 = call i32 (ptr, ...) @pg_printf(ptr noundef @.str.45, ptr noundef %3)
  %5 = load ptr, ptr %2, align 8
  %6 = call i32 (ptr, ...) @pg_printf(ptr noundef @.str.46, ptr noundef %5)
  %7 = call i32 (ptr, ...) @pg_printf(ptr noundef @.str.47)
  %8 = call i32 (ptr, ...) @pg_printf(ptr noundef @.str.48)
  %9 = call i32 (ptr, ...) @pg_printf(ptr noundef @.str.49)
  %10 = call i32 (ptr, ...) @pg_printf(ptr noundef @.str.50)
  %11 = call i32 (ptr, ...) @pg_printf(ptr noundef @.str.51)
  %12 = call i32 (ptr, ...) @pg_printf(ptr noundef @.str.52)
  %13 = call i32 (ptr, ...) @pg_printf(ptr noundef @.str.53)
  %14 = call i32 (ptr, ...) @pg_printf(ptr noundef @.str.54)
  %15 = call i32 (ptr, ...) @pg_printf(ptr noundef @.str.55)
  %16 = call i32 (ptr, ...) @pg_printf(ptr noundef @.str.56)
  %17 = call i32 (ptr, ...) @pg_printf(ptr noundef @.str.57)
  %18 = call i32 (ptr, ...) @pg_printf(ptr noundef @.str.58)
  %19 = call i32 (ptr, ...) @pg_printf(ptr noundef @.str.59)
  %20 = call i32 (ptr, ...) @pg_printf(ptr noundef @.str.60)
  %21 = call i32 (ptr, ...) @pg_printf(ptr noundef @.str.61)
  %22 = call i32 (ptr, ...) @pg_printf(ptr noundef @.str.62, ptr noundef @.str.63)
  %23 = call i32 (ptr, ...) @pg_printf(ptr noundef @.str.64, ptr noundef @.str.65, ptr noundef @.str.66)
  ret void
}