; Function Attrs: nounwind uwtable
define internal fastcc void @usage(ptr noundef %0) unnamed_addr #0 {
  %2 = tail call i32 (ptr, ...) @pg_printf(ptr noundef nonnull @.str.45, ptr noundef %0) #12
  %3 = tail call i32 (ptr, ...) @pg_printf(ptr noundef nonnull @.str.46, ptr noundef %0) #12
  %4 = tail call i32 (ptr, ...) @pg_printf(ptr noundef nonnull @.str.47) #12
  %5 = tail call i32 (ptr, ...) @pg_printf(ptr noundef nonnull @.str.48) #12
  %6 = tail call i32 (ptr, ...) @pg_printf(ptr noundef nonnull @.str.49) #12
  %7 = tail call i32 (ptr, ...) @pg_printf(ptr noundef nonnull @.str.50) #12
  %8 = tail call i32 (ptr, ...) @pg_printf(ptr noundef nonnull @.str.51) #12
  %9 = tail call i32 (ptr, ...) @pg_printf(ptr noundef nonnull @.str.52) #12
  %10 = tail call i32 (ptr, ...) @pg_printf(ptr noundef nonnull @.str.53) #12
  %11 = tail call i32 (ptr, ...) @pg_printf(ptr noundef nonnull @.str.54) #12
  %12 = tail call i32 (ptr, ...) @pg_printf(ptr noundef nonnull @.str.55) #12
  %13 = tail call i32 (ptr, ...) @pg_printf(ptr noundef nonnull @.str.56) #12
  %14 = tail call i32 (ptr, ...) @pg_printf(ptr noundef nonnull @.str.57) #12
  %15 = tail call i32 (ptr, ...) @pg_printf(ptr noundef nonnull @.str.58) #12
  %16 = tail call i32 (ptr, ...) @pg_printf(ptr noundef nonnull @.str.59) #12
  %17 = tail call i32 (ptr, ...) @pg_printf(ptr noundef nonnull @.str.60) #12
  %18 = tail call i32 (ptr, ...) @pg_printf(ptr noundef nonnull @.str.61) #12
  %19 = tail call i32 (ptr, ...) @pg_printf(ptr noundef nonnull @.str.62, ptr noundef nonnull @.str.63) #12
  %20 = tail call i32 (ptr, ...) @pg_printf(ptr noundef nonnull @.str.64, ptr noundef nonnull @.str.65, ptr noundef nonnull @.str.66) #12
  ret void
}